target datalayout = "e-m:e-p270:32:32-p271:32:32-p272:64:64-i64:64-i128:128-f80:128-n8:16:32:64-S128"
target triple = "x86_64-pc-linux-gnu"

%struct.FSMAddress = type { i32, i32 }

@FSM_ROOT_ADDRESS = internal constant %struct.FSMAddress { i32 2, i32 0 }, align 4

; Function Attrs: nounwind uwtable
define dso_local void @FreeSpaceMapVacuumRange(ptr noundef %0, i32 noundef %1, i32 noundef %2) #0 {
  %4 = alloca ptr, align 8
  %5 = alloca i32, align 4
  %6 = alloca i32, align 4
  %7 = alloca i8, align 1
  store ptr %0, ptr %4, align 8
  store i32 %1, ptr %5, align 4
  store i32 %2, ptr %6, align 4
  call void @llvm.lifetime.start.p0(i64 1, ptr %7) #8
  %8 = load i32, ptr %6, align 4
  %9 = load i32, ptr %5, align 4
  %10 = icmp ugt i32 %8, %9
  br i1 %10, label %11, label %17

11:                                               ; preds = %3
  %12 = load ptr, ptr %4, align 8
  %13 = load i32, ptr %5, align 4
  %14 = load i32, ptr %6, align 4
  %15 = load i64, ptr @FSM_ROOT_ADDRESS, align 4
  %16 = call zeroext i8 @fsm_vacuum_page(ptr noundef %12, i64 %15, i32 noundef %13, i32 noundef %14, ptr noundef %7)
  br label %17

17:                                               ; preds = %11, %3
  call void @llvm.lifetime.end.p0(i64 1, ptr %7) #8
  ret void
}