; Function Attrs: nounwind uwtable
define dso_local void @FreeSpaceMapVacuumRange(ptr noundef %0, i32 noundef %1, i32 noundef %2) local_unnamed_addr #0 {
  %4 = alloca i8, align 1
  call void @llvm.lifetime.start.p0(i64 1, ptr nonnull %4) #8
  %5 = icmp ugt i32 %2, %1
  br i1 %5, label %6, label %8

6:                                                ; preds = %3
  %7 = call fastcc zeroext i8 @fsm_vacuum_page(ptr noundef %0, i64 2, i32 noundef %1, i32 noundef %2, ptr noundef %4)
  br label %8

8:                                                ; preds = %6, %3
  call void @llvm.lifetime.end.p0(i64 1, ptr nonnull %4) #8
  ret void
}